target datalayout = "e-m:e-p270:32:32-p271:32:32-p272:64:64-i64:64-i128:128-f80:128-n8:16:32:64-S128"
target triple = "x86_64-pc-linux-gnu"

@.str.3 = private unnamed_addr constant [2 x i8] c"\0A\00", align 1
@.str.4 = private unnamed_addr constant [32 x i8] c"    stat [options] [selection]\0A\00", align 1
@.str.5 = private unnamed_addr constant [74 x i8] c"Print some statistics (number of objects) on the selected portion of the\0A\00", align 1
@.str.6 = private unnamed_addr constant [9 x i8] c"design.\0A\00", align 1
@.str.7 = private unnamed_addr constant [19 x i8] c"    -top <module>\0A\00", align 1
@.str.8 = private unnamed_addr constant [80 x i8] c"        print design hierarchy with this module as top. if the design is fully\0A\00", align 1
@.str.9 = private unnamed_addr constant [80 x i8] c"        selected and a module has the 'top' attribute set, this module is used\0A\00", align 1
@.str.10 = private unnamed_addr constant [40 x i8] c"        default value for this option.\0A\00", align 1
@.str.11 = private unnamed_addr constant [29 x i8] c"    -liberty <liberty_file>\0A\00", align 1
@.str.12 = private unnamed_addr constant [66 x i8] c"        use cell area information from the provided liberty file\0A\00", align 1
@.str.13 = private unnamed_addr constant [24 x i8] c"    -tech <technology>\0A\00", align 1
@.str.14 = private unnamed_addr constant [79 x i8] c"        print area estimate for the specified technology. Currently supported\0A\00", align 1
@.str.15 = private unnamed_addr constant [47 x i8] c"        values for <technology>: xilinx, cmos\0A\00", align 1
@.str.16 = private unnamed_addr constant [12 x i8] c"    -width\0A\00", align 1
@.str.17 = private unnamed_addr constant [61 x i8] c"        annotate internal cell types with their word width.\0A\00", align 1
@.str.18 = private unnamed_addr constant [50 x i8] c"        e.g. $add_8 for an 8 bit wide $add cell.\0A\00", align 1
@.str.19 = private unnamed_addr constant [11 x i8] c"    -json\0A\00", align 1
@.str.20 = private unnamed_addr constant [66 x i8] c"        output the statistics in a machine-readable JSON format.\0A\00", align 1
@.str.21 = private unnamed_addr constant [71 x i8] c"        this is output to the console; use \22tee\22 to output to a file.\0A\00", align 1

; Function Attrs: mustprogress uwtable
define internal void @_ZN12_GLOBAL__N_18StatPass4helpEv(ptr noundef nonnull align 8 dereferenceable(104) %0) unnamed_addr #4 align 2 {
  %2 = alloca ptr, align 8
  store ptr %0, ptr %2, align 8
  call void (ptr, ...) @_ZN5Yosys3logEPKcz(ptr noundef @.str.3)
  call void (ptr, ...) @_ZN5Yosys3logEPKcz(ptr noundef @.str.4)
  call void (ptr, ...) @_ZN5Yosys3logEPKcz(ptr noundef @.str.3)
  call void (ptr, ...) @_ZN5Yosys3logEPKcz(ptr noundef @.str.5)
  call void (ptr, ...) @_ZN5Yosys3logEPKcz(ptr noundef @.str.6)
  call void (ptr, ...) @_ZN5Yosys3logEPKcz(ptr noundef @.str.3)
  call void (ptr, ...) @_ZN5Yosys3logEPKcz(ptr noundef @.str.7)
  call void (ptr, ...) @_ZN5Yosys3logEPKcz(ptr noundef @.str.8)
  call void (ptr, ...) @_ZN5Yosys3logEPKcz(ptr noundef @.str.9)
  call void (ptr, ...) @_ZN5Yosys3logEPKcz(ptr noundef @.str.10)
  call void (ptr, ...) @_ZN5Yosys3logEPKcz(ptr noundef @.str.3)
  call void (ptr, ...) @_ZN5Yosys3logEPKcz(ptr noundef @.str.11)
  call void (ptr, ...) @_ZN5Yosys3logEPKcz(ptr noundef @.str.12)
  call void (ptr, ...) @_ZN5Yosys3logEPKcz(ptr noundef @.str.3)
  call void (ptr, ...) @_ZN5Yosys3logEPKcz(ptr noundef @.str.13)
  call void (ptr, ...) @_ZN5Yosys3logEPKcz(ptr noundef @.str.14)
  call void (ptr, ...) @_ZN5Yosys3logEPKcz(ptr noundef @.str.15)
  call void (ptr, ...) @_ZN5Yosys3logEPKcz(ptr noundef @.str.3)
  call void (ptr, ...) @_ZN5Yosys3logEPKcz(ptr noundef @.str.16)
  call void (ptr, ...) @_ZN5Yosys3logEPKcz(ptr noundef @.str.17)
  call void (ptr, ...) @_ZN5Yosys3logEPKcz(ptr noundef @.str.18)
  call void (ptr, ...) @_ZN5Yosys3logEPKcz(ptr noundef @.str.3)
  call void (ptr, ...) @_ZN5Yosys3logEPKcz(ptr noundef @.str.19)
  call void (ptr, ...) @_ZN5Yosys3logEPKcz(ptr noundef @.str.20)
  call void (ptr, ...) @_ZN5Yosys3logEPKcz(ptr noundef @.str.21)
  call void (ptr, ...) @_ZN5Yosys3logEPKcz(ptr noundef @.str.3)
  ret void
}